In archive libArduinoDistanceDriver.a:

UltrasoundDistanceSensor.o:     file format elf32-avr

Sections:
Idx Name          Size      VMA       LMA       File off  Algn
  0 .group        00000008  00000000  00000000  00000034  2**2
                  CONTENTS, READONLY, EXCLUDE, GROUP, LINK_ONCE_DISCARD
  1 .group        00000008  00000000  00000000  0000003c  2**2
                  CONTENTS, READONLY, EXCLUDE, GROUP, LINK_ONCE_DISCARD
  2 .group        00000008  00000000  00000000  00000044  2**2
                  CONTENTS, READONLY, EXCLUDE, GROUP, LINK_ONCE_DISCARD
  3 .text         00000000  00000000  00000000  0000004c  2**0
                  CONTENTS, ALLOC, LOAD, READONLY, CODE
  4 .data         00000000  00000000  00000000  0000004c  2**0
                  CONTENTS, ALLOC, LOAD, DATA
  5 .bss          00000000  00000000  00000000  0000004c  2**0
                  ALLOC
  6 .stab         00000840  00000000  00000000  0000004c  2**2
                  CONTENTS, RELOC, READONLY, DEBUGGING
  7 .stabstr      00001461  00000000  00000000  0000088c  2**0
                  CONTENTS, READONLY, DEBUGGING
  8 .text._ZN14DistanceSensorC2Ev 00000026  00000000  00000000  00001ced  2**0
                  CONTENTS, ALLOC, LOAD, RELOC, READONLY, CODE
  9 .text._ZN24UltrasoundDistanceSensorC2Ehh 0000005c  00000000  00000000  00001d13  2**0
                  CONTENTS, ALLOC, LOAD, RELOC, READONLY, CODE
 10 .text._ZN24UltrasoundDistanceSensor11getEchoTimeEv 0000005a  00000000  00000000  00001d6f  2**0
                  CONTENTS, ALLOC, LOAD, RELOC, READONLY, CODE
 11 .text._ZN24UltrasoundDistanceSensor11getDistanceEv 00000060  00000000  00000000  00001dc9  2**0
                  CONTENTS, ALLOC, LOAD, RELOC, READONLY, CODE
 12 .rodata._ZTV24UltrasoundDistanceSensor 00000006  00000000  00000000  00001e29  2**0
                  CONTENTS, ALLOC, LOAD, RELOC, READONLY, DATA
 13 .rodata._ZTV14DistanceSensor 00000006  00000000  00000000  00001e2f  2**0
                  CONTENTS, ALLOC, LOAD, RELOC, READONLY, DATA
 14 .rodata._ZL2SS 00000001  00000000  00000000  00001e35  2**0
                  CONTENTS, ALLOC, LOAD, READONLY, DATA
 15 .rodata._ZL4MOSI 00000001  00000000  00000000  00001e36  2**0
                  CONTENTS, ALLOC, LOAD, READONLY, DATA
 16 .rodata._ZL4MISO 00000001  00000000  00000000  00001e37  2**0
                  CONTENTS, ALLOC, LOAD, READONLY, DATA
 17 .rodata._ZL3SCK 00000001  00000000  00000000  00001e38  2**0
                  CONTENTS, ALLOC, LOAD, READONLY, DATA
 18 .rodata._ZL3SDA 00000001  00000000  00000000  00001e39  2**0
                  CONTENTS, ALLOC, LOAD, READONLY, DATA
 19 .rodata._ZL3SCL 00000001  00000000  00000000  00001e3a  2**0
                  CONTENTS, ALLOC, LOAD, READONLY, DATA
 20 .rodata._ZL2A0 00000001  00000000  00000000  00001e3b  2**0
                  CONTENTS, ALLOC, LOAD, READONLY, DATA
 21 .rodata._ZL2A1 00000001  00000000  00000000  00001e3c  2**0
                  CONTENTS, ALLOC, LOAD, READONLY, DATA
 22 .rodata._ZL2A2 00000001  00000000  00000000  00001e3d  2**0
                  CONTENTS, ALLOC, LOAD, READONLY, DATA
 23 .rodata._ZL2A3 00000001  00000000  00000000  00001e3e  2**0
                  CONTENTS, ALLOC, LOAD, READONLY, DATA
 24 .rodata._ZL2A4 00000001  00000000  00000000  00001e3f  2**0
                  CONTENTS, ALLOC, LOAD, READONLY, DATA
 25 .rodata._ZL2A5 00000001  00000000  00000000  00001e40  2**0
                  CONTENTS, ALLOC, LOAD, READONLY, DATA
 26 .rodata._ZL2A6 00000001  00000000  00000000  00001e41  2**0
                  CONTENTS, ALLOC, LOAD, READONLY, DATA
 27 .rodata._ZL2A7 00000001  00000000  00000000  00001e42  2**0
                  CONTENTS, ALLOC, LOAD, READONLY, DATA
 28 .comment      00000012  00000000  00000000  00001e43  2**0
                  CONTENTS, READONLY

Disassembly of section .text._ZN14DistanceSensorC2Ev:

00000000 <_ZN14DistanceSensorC1Ev>:
    delayMicroseconds(100);
    digitalWrite(trigPin, LOW);
    return pulseIn(echoPin, HIGH, US_SENSOR_PULSE_IN_TIMEOUT);
}

float UltrasoundDistanceSensor::getDistance() {
   0:	cf 93       	push	r28
   2:	df 93       	push	r29
   4:	00 d0       	rcall	.+0      	; 0x6 <_ZN14DistanceSensorC1Ev+0x6>
   6:	cd b7       	in	r28, 0x3d	; 61
   8:	de b7       	in	r29, 0x3e	; 62
   a:	9a 83       	std	Y+2, r25	; 0x02
   c:	89 83       	std	Y+1, r24	; 0x01
   e:	89 81       	ldd	r24, Y+1	; 0x01
  10:	9a 81       	ldd	r25, Y+2	; 0x02
    float time = (float) getEchoTime();
  12:	20 e0       	ldi	r18, 0x00	; 0
  14:	30 e0       	ldi	r19, 0x00	; 0
  16:	fc 01       	movw	r30, r24
  18:	31 83       	std	Z+1, r19	; 0x01
  1a:	20 83       	st	Z, r18
  1c:	0f 90       	pop	r0
  1e:	0f 90       	pop	r0
  20:	df 91       	pop	r29
  22:	cf 91       	pop	r28
  24:	08 95       	ret

Disassembly of section .text._ZN24UltrasoundDistanceSensorC2Ehh:

00000026 <_ZN24UltrasoundDistanceSensorC1Ehh>:
  26:	cf 93       	push	r28
  28:	df 93       	push	r29
  2a:	00 d0       	rcall	.+0      	; 0x2c <_ZN24UltrasoundDistanceSensorC1Ehh+0x6>
  2c:	00 d0       	rcall	.+0      	; 0x2e <_ZN24UltrasoundDistanceSensorC1Ehh+0x8>
  2e:	cd b7       	in	r28, 0x3d	; 61
  30:	de b7       	in	r29, 0x3e	; 62
    return time / US_SENSOR_2_TIMES_US_PER_CM;
  32:	9a 83       	std	Y+2, r25	; 0x02
  34:	89 83       	std	Y+1, r24	; 0x01
  36:	6b 83       	std	Y+3, r22	; 0x03
  38:	4c 83       	std	Y+4, r20	; 0x04
  3a:	89 81       	ldd	r24, Y+1	; 0x01
  3c:	9a 81       	ldd	r25, Y+2	; 0x02
  3e:	0e 94 00 00 	call	0	; 0x0 <__tmp_reg__>
  42:	89 81       	ldd	r24, Y+1	; 0x01
  44:	9a 81       	ldd	r25, Y+2	; 0x02
  46:	20 e0       	ldi	r18, 0x00	; 0
  48:	30 e0       	ldi	r19, 0x00	; 0
}
  4a:	fc 01       	movw	r30, r24
  4c:	31 83       	std	Z+1, r19	; 0x01
  4e:	20 83       	st	Z, r18
  50:	89 81       	ldd	r24, Y+1	; 0x01
  52:	9a 81       	ldd	r25, Y+2	; 0x02
  54:	2b 81       	ldd	r18, Y+3	; 0x03
  56:	fc 01       	movw	r30, r24
  58:	22 83       	std	Z+2, r18	; 0x02
  5a:	89 81       	ldd	r24, Y+1	; 0x01
  5c:	9a 81       	ldd	r25, Y+2	; 0x02
  5e:	2c 81       	ldd	r18, Y+4	; 0x04
  60:	fc 01       	movw	r30, r24
  62:	23 83       	std	Z+3, r18	; 0x03
  64:	60 e0       	ldi	r22, 0x00	; 0
  66:	8b 81       	ldd	r24, Y+3	; 0x03
  68:	0e 94 00 00 	call	0	; 0x0 <__tmp_reg__>
  6c:	61 e0       	ldi	r22, 0x01	; 1
  6e:	8c 81       	ldd	r24, Y+4	; 0x04
  70:	0e 94 00 00 	call	0	; 0x0 <__tmp_reg__>
  74:	0f 90       	pop	r0
  76:	0f 90       	pop	r0
  78:	0f 90       	pop	r0
  7a:	0f 90       	pop	r0
  7c:	df 91       	pop	r29
  7e:	cf 91       	pop	r28
  80:	08 95       	ret

Disassembly of section .text._ZN24UltrasoundDistanceSensor11getEchoTimeEv:

000000a8 <_ZN24UltrasoundDistanceSensor11getEchoTimeEv>:
  a8:	cf 93       	push	r28
  aa:	df 93       	push	r29
  ac:	00 d0       	rcall	.+0      	; 0xae <_ZN24UltrasoundDistanceSensor11getEchoTimeEv+0x6>
  ae:	cd b7       	in	r28, 0x3d	; 61
  b0:	de b7       	in	r29, 0x3e	; 62
  b2:	9a 83       	std	Y+2, r25	; 0x02
  b4:	89 83       	std	Y+1, r24	; 0x01
  b6:	89 81       	ldd	r24, Y+1	; 0x01
  b8:	9a 81       	ldd	r25, Y+2	; 0x02
  ba:	fc 01       	movw	r30, r24
  bc:	83 81       	ldd	r24, Z+3	; 0x03
  be:	61 e0       	ldi	r22, 0x01	; 1
  c0:	0e 94 00 00 	call	0	; 0x0 <__tmp_reg__>
  c4:	84 e6       	ldi	r24, 0x64	; 100
  c6:	90 e0       	ldi	r25, 0x00	; 0
  c8:	0e 94 00 00 	call	0	; 0x0 <__tmp_reg__>
  cc:	89 81       	ldd	r24, Y+1	; 0x01
  ce:	9a 81       	ldd	r25, Y+2	; 0x02
  d0:	fc 01       	movw	r30, r24
  d2:	83 81       	ldd	r24, Z+3	; 0x03
  d4:	60 e0       	ldi	r22, 0x00	; 0
  d6:	0e 94 00 00 	call	0	; 0x0 <__tmp_reg__>
  da:	89 81       	ldd	r24, Y+1	; 0x01
  dc:	9a 81       	ldd	r25, Y+2	; 0x02
  de:	fc 01       	movw	r30, r24
  e0:	82 81       	ldd	r24, Z+2	; 0x02
  e2:	24 e1       	ldi	r18, 0x14	; 20
  e4:	3d e2       	ldi	r19, 0x2D	; 45
  e6:	40 e0       	ldi	r20, 0x00	; 0
  e8:	50 e0       	ldi	r21, 0x00	; 0
  ea:	61 e0       	ldi	r22, 0x01	; 1
  ec:	0e 94 00 00 	call	0	; 0x0 <__tmp_reg__>
  f0:	dc 01       	movw	r26, r24
  f2:	cb 01       	movw	r24, r22
  f4:	bc 01       	movw	r22, r24
  f6:	cd 01       	movw	r24, r26
  f8:	0f 90       	pop	r0
  fa:	0f 90       	pop	r0
  fc:	df 91       	pop	r29
  fe:	cf 91       	pop	r28
 100:	08 95       	ret

Disassembly of section .text._ZN24UltrasoundDistanceSensor11getDistanceEv:

000001aa <_ZN24UltrasoundDistanceSensor11getDistanceEv>:
 1aa:	cf 93       	push	r28
 1ac:	df 93       	push	r29
 1ae:	00 d0       	rcall	.+0      	; 0x1b0 <_ZN24UltrasoundDistanceSensor11getDistanceEv+0x6>
 1b0:	00 d0       	rcall	.+0      	; 0x1b2 <_ZN24UltrasoundDistanceSensor11getDistanceEv+0x8>
 1b2:	00 d0       	rcall	.+0      	; 0x1b4 <_ZN24UltrasoundDistanceSensor11getDistanceEv+0xa>
 1b4:	cd b7       	in	r28, 0x3d	; 61
 1b6:	de b7       	in	r29, 0x3e	; 62
 1b8:	9e 83       	std	Y+6, r25	; 0x06
 1ba:	8d 83       	std	Y+5, r24	; 0x05
 1bc:	8d 81       	ldd	r24, Y+5	; 0x05
 1be:	9e 81       	ldd	r25, Y+6	; 0x06
 1c0:	0e 94 00 00 	call	0	; 0x0 <__tmp_reg__>
 1c4:	dc 01       	movw	r26, r24
 1c6:	cb 01       	movw	r24, r22
 1c8:	bc 01       	movw	r22, r24
 1ca:	cd 01       	movw	r24, r26
 1cc:	0e 94 00 00 	call	0	; 0x0 <__tmp_reg__>
 1d0:	dc 01       	movw	r26, r24
 1d2:	cb 01       	movw	r24, r22
 1d4:	89 83       	std	Y+1, r24	; 0x01
 1d6:	9a 83       	std	Y+2, r25	; 0x02
 1d8:	ab 83       	std	Y+3, r26	; 0x03
 1da:	bc 83       	std	Y+4, r27	; 0x04
 1dc:	2d ec       	ldi	r18, 0xCD	; 205
 1de:	3c ec       	ldi	r19, 0xCC	; 204
 1e0:	46 e6       	ldi	r20, 0x66	; 102
 1e2:	52 e4       	ldi	r21, 0x42	; 66
 1e4:	69 81       	ldd	r22, Y+1	; 0x01
 1e6:	7a 81       	ldd	r23, Y+2	; 0x02
 1e8:	8b 81       	ldd	r24, Y+3	; 0x03
 1ea:	9c 81       	ldd	r25, Y+4	; 0x04
 1ec:	0e 94 00 00 	call	0	; 0x0 <__tmp_reg__>
 1f0:	dc 01       	movw	r26, r24
 1f2:	cb 01       	movw	r24, r22
 1f4:	bc 01       	movw	r22, r24
 1f6:	cd 01       	movw	r24, r26
 1f8:	26 96       	adiw	r28, 0x06	; 6
 1fa:	0f b6       	in	r0, 0x3f	; 63
 1fc:	f8 94       	cli
 1fe:	de bf       	out	0x3e, r29	; 62
 200:	0f be       	out	0x3f, r0	; 63
 202:	cd bf       	out	0x3d, r28	; 61
 204:	df 91       	pop	r29
 206:	cf 91       	pop	r28
 208:	08 95       	ret

DistanceSensor.o:     file format elf32-avr

Sections:
Idx Name          Size      VMA       LMA       File off  Algn
  0 .text         00000000  00000000  00000000  00000034  2**0
                  CONTENTS, ALLOC, LOAD, READONLY, CODE
  1 .data         00000000  00000000  00000000  00000034  2**0
                  CONTENTS, ALLOC, LOAD, DATA
  2 .bss          00000000  00000000  00000000  00000034  2**0
                  ALLOC
  3 .stab         00000300  00000000  00000000  00000034  2**2
                  CONTENTS, RELOC, READONLY, DEBUGGING
  4 .stabstr      00000901  00000000  00000000  00000334  2**0
                  CONTENTS, READONLY, DEBUGGING
  5 .comment      00000012  00000000  00000000  00000c35  2**0
                  CONTENTS, READONLY

main.o:     file format elf32-avr

Sections:
Idx Name          Size      VMA       LMA       File off  Algn
  0 .text         00000000  00000000  00000000  00000034  2**0
                  CONTENTS, ALLOC, LOAD, READONLY, CODE
  1 .data         00000000  00000000  00000000  00000034  2**0
                  CONTENTS, ALLOC, LOAD, DATA
  2 .bss          00000000  00000000  00000000  00000034  2**0
                  ALLOC
  3 .stab         0000078c  00000000  00000000  00000034  2**2
                  CONTENTS, RELOC, READONLY, DEBUGGING
  4 .stabstr      00001174  00000000  00000000  000007c0  2**0
                  CONTENTS, READONLY, DEBUGGING
  5 .text.setup   00000016  00000000  00000000  00001934  2**0
                  CONTENTS, ALLOC, LOAD, RELOC, READONLY, CODE
  6 .text.loop    00000038  00000000  00000000  0000194a  2**0
                  CONTENTS, ALLOC, LOAD, RELOC, READONLY, CODE
  7 .text.main    00000022  00000000  00000000  00001982  2**0
                  CONTENTS, ALLOC, LOAD, RELOC, READONLY, CODE
  8 .rodata._ZL2SS 00000001  00000000  00000000  000019a4  2**0
                  CONTENTS, ALLOC, LOAD, READONLY, DATA
  9 .rodata._ZL4MOSI 00000001  00000000  00000000  000019a5  2**0
                  CONTENTS, ALLOC, LOAD, READONLY, DATA
 10 .rodata._ZL4MISO 00000001  00000000  00000000  000019a6  2**0
                  CONTENTS, ALLOC, LOAD, READONLY, DATA
 11 .rodata._ZL3SCK 00000001  00000000  00000000  000019a7  2**0
                  CONTENTS, ALLOC, LOAD, READONLY, DATA
 12 .rodata._ZL3SDA 00000001  00000000  00000000  000019a8  2**0
                  CONTENTS, ALLOC, LOAD, READONLY, DATA
 13 .rodata._ZL3SCL 00000001  00000000  00000000  000019a9  2**0
                  CONTENTS, ALLOC, LOAD, READONLY, DATA
 14 .rodata._ZL2A0 00000001  00000000  00000000  000019aa  2**0
                  CONTENTS, ALLOC, LOAD, READONLY, DATA
 15 .rodata._ZL2A1 00000001  00000000  00000000  000019ab  2**0
                  CONTENTS, ALLOC, LOAD, READONLY, DATA
 16 .rodata._ZL2A2 00000001  00000000  00000000  000019ac  2**0
                  CONTENTS, ALLOC, LOAD, READONLY, DATA
 17 .rodata._ZL2A3 00000001  00000000  00000000  000019ad  2**0
                  CONTENTS, ALLOC, LOAD, READONLY, DATA
 18 .rodata._ZL2A4 00000001  00000000  00000000  000019ae  2**0
                  CONTENTS, ALLOC, LOAD, READONLY, DATA
 19 .rodata._ZL2A5 00000001  00000000  00000000  000019af  2**0
                  CONTENTS, ALLOC, LOAD, READONLY, DATA
 20 .rodata._ZL2A6 00000001  00000000  00000000  000019b0  2**0
                  CONTENTS, ALLOC, LOAD, READONLY, DATA
 21 .rodata._ZL2A7 00000001  00000000  00000000  000019b1  2**0
                  CONTENTS, ALLOC, LOAD, READONLY, DATA
 22 .comment      00000012  00000000  00000000  000019b2  2**0
                  CONTENTS, READONLY

Disassembly of section .text.setup:

00000000 <setup>:
    char state = digitalRead(13);
    digitalWrite(13, !state);
    delay(100);
}

int main(void) {
   0:	cf 93       	push	r28
   2:	df 93       	push	r29
   4:	cd b7       	in	r28, 0x3d	; 61
   6:	de b7       	in	r29, 0x3e	; 62
    init();
   8:	61 e0       	ldi	r22, 0x01	; 1
   a:	8d e0       	ldi	r24, 0x0D	; 13

#if defined(USBCON)
    USBDevice.attach();
#endif

    setup();
   c:	0e 94 00 00 	call	0	; 0x0 <setup>

    for (;;) {
        loop();
  10:	df 91       	pop	r29
  12:	cf 91       	pop	r28
        if (serialEventRun) {
  14:	08 95       	ret

Disassembly of section .text.loop:

00000016 <loop>:
  16:	cf 93       	push	r28
  18:	df 93       	push	r29
  1a:	1f 92       	push	r1
            serialEventRun();
  1c:	cd b7       	in	r28, 0x3d	; 61
  1e:	de b7       	in	r29, 0x3e	; 62
    char state = digitalRead(13);
    digitalWrite(13, !state);
    delay(100);
}

int main(void) {
  20:	8d e0       	ldi	r24, 0x0D	; 13
  22:	0e 94 00 00 	call	0	; 0x0 <__tmp_reg__>
  26:	89 83       	std	Y+1, r24	; 0x01
  28:	81 e0       	ldi	r24, 0x01	; 1
  2a:	99 81       	ldd	r25, Y+1	; 0x01
  2c:	99 23       	and	r25, r25
  2e:	01 f0       	breq	.+0      	; 0x30 <loop+0x1a>
  30:	80 e0       	ldi	r24, 0x00	; 0
  32:	68 2f       	mov	r22, r24
  34:	8d e0       	ldi	r24, 0x0D	; 13
  36:	0e 94 00 00 	call	0	; 0x0 <__tmp_reg__>
  3a:	64 e6       	ldi	r22, 0x64	; 100
  3c:	70 e0       	ldi	r23, 0x00	; 0
  3e:	80 e0       	ldi	r24, 0x00	; 0
  40:	90 e0       	ldi	r25, 0x00	; 0
  42:	0e 94 00 00 	call	0	; 0x0 <__tmp_reg__>
  46:	0f 90       	pop	r0
  48:	df 91       	pop	r29
  4a:	cf 91       	pop	r28
  4c:	08 95       	ret

Disassembly of section .text.main:

00000064 <main>:
  64:	cf 93       	push	r28
  66:	df 93       	push	r29
  68:	cd b7       	in	r28, 0x3d	; 61
  6a:	de b7       	in	r29, 0x3e	; 62
  6c:	0e 94 00 00 	call	0	; 0x0 <__tmp_reg__>
  70:	0e 94 00 00 	call	0	; 0x0 <__tmp_reg__>
  74:	0e 94 00 00 	call	0	; 0x0 <__tmp_reg__>
  78:	80 e0       	ldi	r24, 0x00	; 0
  7a:	90 e0       	ldi	r25, 0x00	; 0
  7c:	00 97       	sbiw	r24, 0x00	; 0
  7e:	01 f0       	breq	.+0      	; 0x80 <main+0x1c>
  80:	0e 94 00 00 	call	0	; 0x0 <__tmp_reg__>
  84:	00 c0       	rjmp	.+0      	; 0x86 <main+0x22>
